target datalayout = "e-m:e-p270:32:32-p271:32:32-p272:64:64-i64:64-i128:128-f80:128-n8:16:32:64-S128"
target triple = "x86_64-pc-linux-gnu"

%"class.spdlog::details::registry" = type { %"class.std::mutex", %"class.std::mutex", %"class.std::recursive_mutex", %"class.std::unordered_map", %"class.std::unordered_map.9", %"class.std::unique_ptr", i32, i32, %"class.std::function.25", %"class.std::shared_ptr", %"class.std::unique_ptr.28", %"class.std::shared_ptr.36", i8, i64 }
%"class.std::mutex" = type { %"class.std::__mutex_base" }
%"class.std::__mutex_base" = type { %union.pthread_mutex_t }
%union.pthread_mutex_t = type { %struct.__pthread_mutex_s }
%struct.__pthread_mutex_s = type { i32, i32, i32, i32, i32, i16, i16, %struct.__pthread_internal_list }
%struct.__pthread_internal_list = type { ptr, ptr }
%"class.std::recursive_mutex" = type { %"class.std::__recursive_mutex_base" }
%"class.std::__recursive_mutex_base" = type { %union.pthread_mutex_t }
%"class.std::unordered_map" = type { %"class.std::_Hashtable" }
%"class.std::_Hashtable" = type { ptr, i64, %"struct.std::__detail::_Hash_node_base", i64, %"struct.std::__detail::_Prime_rehash_policy", ptr }
%"struct.std::__detail::_Hash_node_base" = type { ptr }
%"struct.std::__detail::_Prime_rehash_policy" = type { float, i64 }
%"class.std::unordered_map.9" = type { %"class.std::_Hashtable.10" }
%"class.std::_Hashtable.10" = type { ptr, i64, %"struct.std::__detail::_Hash_node_base", i64, %"struct.std::__detail::_Prime_rehash_policy", ptr }
%"class.std::unique_ptr" = type { %"struct.std::__uniq_ptr_data" }
%"struct.std::__uniq_ptr_data" = type { %"class.std::__uniq_ptr_impl" }
%"class.std::__uniq_ptr_impl" = type { %"class.std::tuple" }
%"class.std::tuple" = type { %"struct.std::_Tuple_impl" }
%"struct.std::_Tuple_impl" = type { %"struct.std::_Head_base.24" }
%"struct.std::_Head_base.24" = type { ptr }
%"class.std::function.25" = type { %"class.std::_Function_base", ptr }
%"class.std::_Function_base" = type { %"union.std::_Any_data", ptr }
%"union.std::_Any_data" = type { %"union.std::_Nocopy_types" }
%"union.std::_Nocopy_types" = type { { i64, i64 } }
%"class.std::shared_ptr" = type { %"class.std::__shared_ptr" }
%"class.std::__shared_ptr" = type { ptr, %"class.std::__shared_count" }
%"class.std::__shared_count" = type { ptr }
%"class.std::unique_ptr.28" = type { %"struct.std::__uniq_ptr_data.29" }
%"struct.std::__uniq_ptr_data.29" = type { %"class.std::__uniq_ptr_impl.30" }
%"class.std::__uniq_ptr_impl.30" = type { %"class.std::tuple.31" }
%"class.std::tuple.31" = type { %"struct.std::_Tuple_impl.32" }
%"struct.std::_Tuple_impl.32" = type { %"struct.std::_Head_base.35" }
%"struct.std::_Head_base.35" = type { ptr }
%"class.std::shared_ptr.36" = type { %"class.std::__shared_ptr.37" }
%"class.std::__shared_ptr.37" = type { ptr, %"class.std::__shared_count" }

@_ZZN6spdlog7details8registry8instanceEvE10s_instance = internal global %"class.spdlog::details::registry" zeroinitializer, align 8
@_ZGVZN6spdlog7details8registry8instanceEvE10s_instance = internal global i64 0, align 8
@__dso_handle = external hidden global i8
@_ZN6spdlog7details8registryC1Ev = dso_local unnamed_addr alias void (ptr), ptr @_ZN6spdlog7details8registryC2Ev
@_ZN6spdlog7details8registryD1Ev = dso_local unnamed_addr alias void (ptr), ptr @_ZN6spdlog7details8registryD2Ev

; Function Attrs: mustprogress uwtable
define dso_local noundef nonnull align 8 dereferenceable(336) ptr @_ZN6spdlog7details8registry8instanceEv() #5 align 2 personality ptr @__gxx_personality_v0 {
  %1 = alloca ptr, align 8
  %2 = alloca i32, align 4
  %3 = load atomic i8, ptr @_ZGVZN6spdlog7details8registry8instanceEvE10s_instance acquire, align 8
  %4 = icmp eq i8 %3, 0
  br i1 %4, label %5, label %11, !prof !122

5:                                                ; preds = %0
  %6 = call i32 @__cxa_guard_acquire(ptr @_ZGVZN6spdlog7details8registry8instanceEvE10s_instance) #13
  %7 = icmp ne i32 %6, 0
  br i1 %7, label %8, label %11

8:                                                ; preds = %5
  invoke void @_ZN6spdlog7details8registryC1Ev(ptr noundef nonnull align 8 dereferenceable(336) @_ZZN6spdlog7details8registry8instanceEvE10s_instance)
          to label %9 unwind label %12

9:                                                ; preds = %8
  %10 = call i32 @__cxa_atexit(ptr @_ZN6spdlog7details8registryD1Ev, ptr @_ZZN6spdlog7details8registry8instanceEvE10s_instance, ptr @__dso_handle) #13
  call void @__cxa_guard_release(ptr @_ZGVZN6spdlog7details8registry8instanceEvE10s_instance) #13
  br label %11

11:                                               ; preds = %9, %5, %0
  ret ptr @_ZZN6spdlog7details8registry8instanceEvE10s_instance

12:                                               ; preds = %8
  %13 = landingpad { ptr, i32 }
          cleanup
  %14 = extractvalue { ptr, i32 } %13, 0
  store ptr %14, ptr %1, align 8
  %15 = extractvalue { ptr, i32 } %13, 1
  store i32 %15, ptr %2, align 4
  call void @__cxa_guard_abort(ptr @_ZGVZN6spdlog7details8registry8instanceEvE10s_instance) #13
  br label %16

16:                                               ; preds = %12
  %17 = load ptr, ptr %1, align 8
  %18 = load i32, ptr %2, align 4
  %19 = insertvalue { ptr, i32 } poison, ptr %17, 0
  %20 = insertvalue { ptr, i32 } %19, i32 %18, 1
  resume { ptr, i32 } %20
}

; Function Attrs: mustprogress uwtable
define dso_local void @_ZN6spdlog9apply_allERKSt8functionIFvSt10shared_ptrINS_6loggerEEEE(ptr noundef nonnull align 8 dereferenceable(32) %0) #5 {
  %2 = alloca ptr, align 8
  store ptr %0, ptr %2, align 8, !tbaa !237
  %3 = call noundef nonnull align 8 dereferenceable(336) ptr @_ZN6spdlog7details8registry8instanceEv()
  %4 = load ptr, ptr %2, align 8, !tbaa !237
  call void @_ZN6spdlog7details8registry9apply_allERKSt8functionIFvSt10shared_ptrINS_6loggerEEEE(ptr noundef nonnull align 8 dereferenceable(336) %3, ptr noundef nonnull align 8 dereferenceable(32) %4)
  ret void
}