; Function Attrs: mustprogress uwtable
define dso_local void @_ZN6spdlog9apply_allERKSt8functionIFvSt10shared_ptrINS_6loggerEEEE(ptr noundef nonnull align 8 dereferenceable(32) %0) local_unnamed_addr #6 personality ptr @__gxx_personality_v0 {
  %2 = load atomic i8, ptr @_ZGVZN6spdlog7details8registry8instanceEvE10s_instance acquire, align 8
  %3 = icmp eq i8 %2, 0
  br i1 %3, label %4, label %_ZN6spdlog7details8registry8instanceEv.exit, !prof !79

4:                                                ; preds = %1
  %5 = tail call i32 @__cxa_guard_acquire(ptr nonnull @_ZGVZN6spdlog7details8registry8instanceEvE10s_instance) #37
  %.not.i = icmp eq i32 %5, 0
  br i1 %.not.i, label %_ZN6spdlog7details8registry8instanceEv.exit, label %6

6:                                                ; preds = %4
  invoke void @_ZN6spdlog7details8registryC2Ev(ptr noundef nonnull align 8 dereferenceable(336) @_ZZN6spdlog7details8registry8instanceEvE10s_instance)
          to label %7 unwind label %9

7:                                                ; preds = %6
  %8 = tail call i32 @__cxa_atexit(ptr nonnull @_ZN6spdlog7details8registryD2Ev, ptr nonnull @_ZZN6spdlog7details8registry8instanceEvE10s_instance, ptr nonnull @__dso_handle) #37
  tail call void @__cxa_guard_release(ptr nonnull @_ZGVZN6spdlog7details8registry8instanceEvE10s_instance) #37
  br label %_ZN6spdlog7details8registry8instanceEv.exit

9:                                                ; preds = %6
  %10 = landingpad { ptr, i32 }
          cleanup
  tail call void @__cxa_guard_abort(ptr nonnull @_ZGVZN6spdlog7details8registry8instanceEvE10s_instance) #37
  resume { ptr, i32 } %10

_ZN6spdlog7details8registry8instanceEv.exit:      ; preds = %1, %4, %7
  tail call void @_ZN6spdlog7details8registry9apply_allERKSt8functionIFvSt10shared_ptrINS_6loggerEEEE(ptr noundef nonnull align 8 dereferenceable(336) @_ZZN6spdlog7details8registry8instanceEvE10s_instance, ptr noundef nonnull align 8 dereferenceable(32) %0)
  ret void
}